; Function Attrs: mustprogress noinline uwtable
define hidden noundef ptr @_ZN6google8protobuf5Arena18CreateMaybeMessageIN17opencv_tensorflow16FunctionDef_NodeEJEEEPT_PS1_DpOT0_(ptr noundef %0) local_unnamed_addr #16 align 2 personality ptr @__gxx_personality_v0 {
  %2 = icmp eq ptr %0, null
  br i1 %2, label %_ZN6google8protobuf5Arena14InternalHelperIN17opencv_tensorflow16FunctionDef_NodeEE3NewEv.exit, label %16

_ZN6google8protobuf5Arena14InternalHelperIN17opencv_tensorflow16FunctionDef_NodeEE3NewEv.exit: ; preds = %1
  %3 = tail call noalias noundef nonnull dereferenceable(224) ptr @_Znwm(i64 noundef 224) #32
  %4 = getelementptr inbounds nuw i8, ptr %3, i64 8
  store i64 0, ptr %4, align 8, !tbaa !3
  store ptr getelementptr inbounds nuw inrange(-16, 152) (i8, ptr @_ZTVN17opencv_tensorflow16FunctionDef_NodeE, i64 16), ptr %3, align 8, !tbaa !8
  %5 = getelementptr inbounds nuw i8, ptr %3, i64 16
  %6 = getelementptr inbounds nuw i8, ptr %3, i64 88
  %7 = getelementptr inbounds nuw i8, ptr %3, i64 96
  tail call void @llvm.memset.p0.i64(ptr noundef nonnull align 8 dereferenceable(72) %5, i8 0, i64 72, i1 false)
  tail call void @llvm.memset.p0.i64(ptr noundef nonnull align 8 dereferenceable(60) %7, i8 0, i64 60, i1 false)
  store ptr getelementptr inbounds nuw inrange(-16, 192) (i8, ptr @_ZTVN6google8protobuf8internal8MapFieldIN17opencv_tensorflow35FunctionDef_Node_AttrEntry_DoNotUseENSt7__cxx1112basic_stringIcSt11char_traitsIcESaIcEEENS3_9AttrValueELNS1_14WireFormatLite9FieldTypeE9ELSD_11EEE, i64 16), ptr %6, align 8, !tbaa !8
  %8 = getelementptr inbounds nuw i8, ptr %3, i64 160
  store i64 0, ptr %8, align 8, !tbaa !89
  %9 = getelementptr inbounds nuw i8, ptr %3, i64 168
  store i64 1, ptr %9, align 8, !tbaa !93
  %10 = getelementptr inbounds nuw i8, ptr %3, i64 176
  store i64 0, ptr %10, align 8, !tbaa !94
  %11 = getelementptr inbounds nuw i8, ptr %3, i64 184
  store i64 1, ptr %11, align 8, !tbaa !95
  %12 = getelementptr inbounds nuw i8, ptr %3, i64 192
  store ptr @_ZN6google8protobuf8internal17kGlobalEmptyTableE, ptr %12, align 8, !tbaa !96
  %13 = getelementptr inbounds nuw i8, ptr %3, i64 200
  store ptr null, ptr %13, align 8, !tbaa !97
  %14 = getelementptr inbounds nuw i8, ptr %3, i64 216
  store i32 0, ptr %14, align 4, !tbaa !23
  %15 = getelementptr inbounds nuw i8, ptr %3, i64 208
  store ptr @_ZN6google8protobuf8internal26fixed_address_empty_stringB5cxx11E, ptr %15, align 8, !tbaa !51
  br label %_ZN6google8protobuf5Arena21CreateMessageInternalIN17opencv_tensorflow16FunctionDef_NodeEEEPT_PS1_.exit

16:                                               ; preds = %1
  %17 = tail call noundef ptr @_ZN6google8protobuf5Arena23AllocateAlignedWithHookEmPKSt9type_info(ptr noundef nonnull align 8 dereferenceable(32) %0, i64 noundef 224, ptr noundef nonnull @_ZTIN17opencv_tensorflow16FunctionDef_NodeE)
  tail call void @_ZN17opencv_tensorflow16FunctionDef_NodeC2EPN6google8protobuf5ArenaEb(ptr noundef nonnull align 8 dereferenceable(224) %17, ptr noundef nonnull %0, i1 noundef zeroext false)
  br label %_ZN6google8protobuf5Arena21CreateMessageInternalIN17opencv_tensorflow16FunctionDef_NodeEEEPT_PS1_.exit

_ZN6google8protobuf5Arena21CreateMessageInternalIN17opencv_tensorflow16FunctionDef_NodeEEEPT_PS1_.exit: ; preds = %_ZN6google8protobuf5Arena14InternalHelperIN17opencv_tensorflow16FunctionDef_NodeEE3NewEv.exit, %16
  %.0.i = phi ptr [ %3, %_ZN6google8protobuf5Arena14InternalHelperIN17opencv_tensorflow16FunctionDef_NodeEE3NewEv.exit ], [ %17, %16 ]
  ret ptr %.0.i
}